target datalayout = "e-m:e-p270:32:32-p271:32:32-p272:64:64-i64:64-i128:128-f80:128-n8:16:32:64-S128"
target triple = "x86_64-pc-linux-gnu"

%class.CorpusProperties = type <{ i32, i32, i32, %struct.min_max, %struct.min_max, i32, i32, i32, i32, i32, %"class.boost::random::mersenne_twister_engine", i32, [4 x i8] }>
%struct.min_max = type { i32, i32 }
%"class.boost::random::mersenne_twister_engine" = type { [624 x i32], i64 }

; Function Attrs: mustprogress nounwind uwtable
define hidden noundef zeroext i1 @_ZN16CorpusProperties14setPercentagesEjjj(ptr noundef nonnull align 8 dereferenceable(2556) %0, i32 noundef %1, i32 noundef %2, i32 noundef %3) #1 align 2 {
  %5 = alloca i1, align 1
  %6 = alloca ptr, align 8
  %7 = alloca i32, align 4
  %8 = alloca i32, align 4
  %9 = alloca i32, align 4
  store ptr %0, ptr %6, align 8
  store i32 %1, ptr %7, align 4
  store i32 %2, ptr %8, align 4
  store i32 %3, ptr %9, align 4
  %10 = load ptr, ptr %6, align 8
  %11 = load i32, ptr %7, align 4
  %12 = load i32, ptr %8, align 4
  %13 = add i32 %11, %12
  %14 = load i32, ptr %9, align 4
  %15 = add i32 %13, %14
  %16 = icmp ne i32 %15, 100
  br i1 %16, label %17, label %18

17:                                               ; preds = %4
  store i1 false, ptr %5, align 1
  br label %25

18:                                               ; preds = %4
  %19 = load i32, ptr %7, align 4
  %20 = getelementptr inbounds nuw %class.CorpusProperties, ptr %10, i32 0, i32 0
  store i32 %19, ptr %20, align 8
  %21 = load i32, ptr %8, align 4
  %22 = getelementptr inbounds nuw %class.CorpusProperties, ptr %10, i32 0, i32 1
  store i32 %21, ptr %22, align 4
  %23 = load i32, ptr %9, align 4
  %24 = getelementptr inbounds nuw %class.CorpusProperties, ptr %10, i32 0, i32 2
  store i32 %23, ptr %24, align 8
  store i1 true, ptr %5, align 1
  br label %25

25:                                               ; preds = %18, %17
  %26 = load i1, ptr %5, align 1
  ret i1 %26
}