; Function Attrs: mustprogress nofree norecurse nosync nounwind willreturn memory(argmem: write) uwtable
define hidden noundef zeroext i1 @_ZN16CorpusProperties14setPercentagesEjjj(ptr noundef nonnull writeonly align 8 captures(none) dereferenceable(2556) %0, i32 noundef %1, i32 noundef %2, i32 noundef %3) local_unnamed_addr #1 align 2 {
  %5 = add i32 %2, %1
  %6 = add i32 %5, %3
  %.not = icmp eq i32 %6, 100
  br i1 %.not, label %7, label %10

7:                                                ; preds = %4
  store i32 %1, ptr %0, align 8
  %8 = getelementptr inbounds nuw i8, ptr %0, i64 4
  store i32 %2, ptr %8, align 4
  %9 = getelementptr inbounds nuw i8, ptr %0, i64 8
  store i32 %3, ptr %9, align 8
  br label %10

10:                                               ; preds = %4, %7
  ret i1 %.not
}